target datalayout = "e-m:e-p270:32:32-p271:32:32-p272:64:64-i64:64-i128:128-f80:128-n8:16:32:64-S128"
target triple = "x86_64-unknown-linux-gnu"

@.str.92 = private unnamed_addr constant [82 x i8] c"unable to decode packbits (case 1, literal bytes: src_rem={}, dst_rem={}, len={})\00", align 1
@.str.93 = private unnamed_addr constant [83 x i8] c"unable to decode packbits (case 2, repeating byte: src_rem={}, dst_rem={}, len={})\00", align 1

; Function Attrs: mustprogress uwtable
define hidden noundef zeroext i1 @_ZN18OpenImageIO_v2_6_08PSDInput19decompress_packbitsEPKcPcjj(ptr noundef nonnull align 8 dereferenceable(840) %this, ptr noundef %src, ptr noundef %dst, i32 noundef %packed_length, i32 noundef %unpacked_length) #6 align 2 {
entry:
  %retval = alloca i1, align 1
  %this.addr = alloca ptr, align 8
  %src.addr = alloca ptr, align 8
  %dst.addr = alloca ptr, align 8
  %packed_length.addr = alloca i32, align 4
  %unpacked_length.addr = alloca i32, align 4
  %src_remaining = alloca i32, align 4
  %dst_remaining = alloca i32, align 4
  %header = alloca i16, align 2
  %length = alloca i32, align 4
  store ptr %this, ptr %this.addr, align 8
  store ptr %src, ptr %src.addr, align 8
  store ptr %dst, ptr %dst.addr, align 8
  store i32 %packed_length, ptr %packed_length.addr, align 4
  store i32 %unpacked_length, ptr %unpacked_length.addr, align 4
  %this1 = load ptr, ptr %this.addr, align 8
  %0 = load i32, ptr %packed_length.addr, align 4
  store i32 %0, ptr %src_remaining, align 4
  %1 = load i32, ptr %unpacked_length.addr, align 4
  store i32 %1, ptr %dst_remaining, align 4
  br label %while.cond

while.cond:                                       ; preds = %if.end32, %if.then, %entry
  %2 = load i32, ptr %src_remaining, align 4
  %cmp = icmp sgt i32 %2, 0
  br i1 %cmp, label %land.rhs, label %land.end

land.rhs:                                         ; preds = %while.cond
  %3 = load i32, ptr %dst_remaining, align 4
  %cmp2 = icmp sgt i32 %3, 0
  br label %land.end

land.end:                                         ; preds = %land.rhs, %while.cond
  %4 = phi i1 [ false, %while.cond ], [ %cmp2, %land.rhs ]
  br i1 %4, label %while.body, label %while.end

while.body:                                       ; preds = %land.end
  %5 = load ptr, ptr %src.addr, align 8
  %6 = load i8, ptr %5, align 1
  %conv = sext i8 %6 to i16
  store i16 %conv, ptr %header, align 2
  %7 = load ptr, ptr %src.addr, align 8
  %incdec.ptr = getelementptr inbounds i8, ptr %7, i32 1
  store ptr %incdec.ptr, ptr %src.addr, align 8
  %8 = load i32, ptr %src_remaining, align 4
  %dec = add nsw i32 %8, -1
  store i32 %dec, ptr %src_remaining, align 4
  %9 = load i16, ptr %header, align 2
  %conv3 = sext i16 %9 to i32
  %cmp4 = icmp eq i32 %conv3, 128
  br i1 %cmp4, label %if.then, label %if.else

if.then:                                          ; preds = %while.body
  br label %while.cond, !llvm.loop !61

if.else:                                          ; preds = %while.body
  %10 = load i16, ptr %header, align 2
  %conv5 = sext i16 %10 to i32
  %cmp6 = icmp sge i32 %conv5, 0
  br i1 %cmp6, label %if.then7, label %if.else16

if.then7:                                         ; preds = %if.else
  %11 = load i16, ptr %header, align 2
  %conv8 = sext i16 %11 to i32
  %add = add nsw i32 1, %conv8
  store i32 %add, ptr %length, align 4
  %12 = load i32, ptr %length, align 4
  %13 = load i32, ptr %src_remaining, align 4
  %sub = sub nsw i32 %13, %12
  store i32 %sub, ptr %src_remaining, align 4
  %14 = load i32, ptr %length, align 4
  %15 = load i32, ptr %dst_remaining, align 4
  %sub9 = sub nsw i32 %15, %14
  store i32 %sub9, ptr %dst_remaining, align 4
  %16 = load i32, ptr %src_remaining, align 4
  %cmp10 = icmp slt i32 %16, 0
  br i1 %cmp10, label %if.then12, label %lor.lhs.false

lor.lhs.false:                                    ; preds = %if.then7
  %17 = load i32, ptr %dst_remaining, align 4
  %cmp11 = icmp slt i32 %17, 0
  br i1 %cmp11, label %if.then12, label %if.end

if.then12:                                        ; preds = %lor.lhs.false, %if.then7
  call void @_ZNK18OpenImageIO_v2_6_010ImageInput8errorfmtIJiiiEEEvPKcDpRKT_(ptr noundef nonnull align 8 dereferenceable(184) %this1, ptr noundef @.str.92, ptr noundef nonnull align 4 dereferenceable(4) %src_remaining, ptr noundef nonnull align 4 dereferenceable(4) %dst_remaining, ptr noundef nonnull align 4 dereferenceable(4) %length)
  store i1 false, ptr %retval, align 1
  br label %return

if.end:                                           ; preds = %lor.lhs.false
  %18 = load ptr, ptr %dst.addr, align 8
  %19 = load ptr, ptr %src.addr, align 8
  %20 = load i32, ptr %length, align 4
  %conv13 = sext i32 %20 to i64
  call void @llvm.memcpy.p0.p0.i64(ptr align 1 %18, ptr align 1 %19, i64 %conv13, i1 false)
  %21 = load i32, ptr %length, align 4
  %22 = load ptr, ptr %src.addr, align 8
  %idx.ext = sext i32 %21 to i64
  %add.ptr = getelementptr inbounds i8, ptr %22, i64 %idx.ext
  store ptr %add.ptr, ptr %src.addr, align 8
  %23 = load i32, ptr %length, align 4
  %24 = load ptr, ptr %dst.addr, align 8
  %idx.ext14 = sext i32 %23 to i64
  %add.ptr15 = getelementptr inbounds i8, ptr %24, i64 %idx.ext14
  store ptr %add.ptr15, ptr %dst.addr, align 8
  br label %if.end31

if.else16:                                        ; preds = %if.else
  %25 = load i16, ptr %header, align 2
  %conv17 = sext i16 %25 to i32
  %sub18 = sub nsw i32 1, %conv17
  store i32 %sub18, ptr %length, align 4
  %26 = load i32, ptr %src_remaining, align 4
  %dec19 = add nsw i32 %26, -1
  store i32 %dec19, ptr %src_remaining, align 4
  %27 = load i32, ptr %length, align 4
  %28 = load i32, ptr %dst_remaining, align 4
  %sub20 = sub nsw i32 %28, %27
  store i32 %sub20, ptr %dst_remaining, align 4
  %29 = load i32, ptr %src_remaining, align 4
  %cmp21 = icmp slt i32 %29, 0
  br i1 %cmp21, label %if.then24, label %lor.lhs.false22

lor.lhs.false22:                                  ; preds = %if.else16
  %30 = load i32, ptr %dst_remaining, align 4
  %cmp23 = icmp slt i32 %30, 0
  br i1 %cmp23, label %if.then24, label %if.end25

if.then24:                                        ; preds = %lor.lhs.false22, %if.else16
  call void @_ZNK18OpenImageIO_v2_6_010ImageInput8errorfmtIJiiiEEEvPKcDpRKT_(ptr noundef nonnull align 8 dereferenceable(184) %this1, ptr noundef @.str.93, ptr noundef nonnull align 4 dereferenceable(4) %src_remaining, ptr noundef nonnull align 4 dereferenceable(4) %dst_remaining, ptr noundef nonnull align 4 dereferenceable(4) %length)
  store i1 false, ptr %retval, align 1
  br label %return

if.end25:                                         ; preds = %lor.lhs.false22
  %31 = load ptr, ptr %dst.addr, align 8
  %32 = load ptr, ptr %src.addr, align 8
  %33 = load i8, ptr %32, align 1
  %conv26 = sext i8 %33 to i32
  %34 = trunc i32 %conv26 to i8
  %35 = load i32, ptr %length, align 4
  %conv27 = sext i32 %35 to i64
  call void @llvm.memset.p0.i64(ptr align 1 %31, i8 %34, i64 %conv27, i1 false)
  %36 = load ptr, ptr %src.addr, align 8
  %incdec.ptr28 = getelementptr inbounds i8, ptr %36, i32 1
  store ptr %incdec.ptr28, ptr %src.addr, align 8
  %37 = load i32, ptr %length, align 4
  %38 = load ptr, ptr %dst.addr, align 8
  %idx.ext29 = sext i32 %37 to i64
  %add.ptr30 = getelementptr inbounds i8, ptr %38, i64 %idx.ext29
  store ptr %add.ptr30, ptr %dst.addr, align 8
  br label %if.end31

if.end31:                                         ; preds = %if.end25, %if.end
  br label %if.end32

if.end32:                                         ; preds = %if.end31
  br label %while.cond, !llvm.loop !61

while.end:                                        ; preds = %land.end
  store i1 true, ptr %retval, align 1
  br label %return

return:                                           ; preds = %while.end, %if.then24, %if.then12
  %39 = load i1, ptr %retval, align 1
  ret i1 %39
}