; Function Attrs: mustprogress uwtable
define hidden noundef zeroext i1 @_ZN18OpenImageIO_v2_6_08PSDInput19decompress_packbitsEPKcPcjj(ptr noundef nonnull align 8 dereferenceable(840) %this, ptr nocapture noundef readonly %src, ptr nocapture noundef writeonly %dst, i32 noundef %packed_length, i32 noundef %unpacked_length) local_unnamed_addr #5 align 2 {
entry:
  %src_remaining = alloca i32, align 4
  %dst_remaining = alloca i32, align 4
  %length = alloca i32, align 4
  store i32 %packed_length, ptr %src_remaining, align 4
  store i32 %unpacked_length, ptr %dst_remaining, align 4
  %cmp20 = icmp slt i32 %packed_length, 1
  %cmp221 = icmp slt i32 %unpacked_length, 1
  %.not22 = or i1 %cmp20, %cmp221
  br i1 %.not22, label %return, label %while.body

while.body:                                       ; preds = %entry, %if.end32
  %src.addr.026 = phi ptr [ %src.addr.1, %if.end32 ], [ %src, %entry ]
  %dst.addr.025 = phi ptr [ %dst.addr.1, %if.end32 ], [ %dst, %entry ]
  %dec191624 = phi i32 [ %dec1917, %if.end32 ], [ %packed_length, %entry ]
  %sub201823 = phi i32 [ %sub2019, %if.end32 ], [ %unpacked_length, %entry ]
  %0 = load i8, ptr %src.addr.026, align 1
  %incdec.ptr = getelementptr inbounds i8, ptr %src.addr.026, i64 1
  %dec = add nsw i32 %dec191624, -1
  %conv3 = sext i8 %0 to i32
  %cmp6 = icmp sgt i8 %0, -1
  br i1 %cmp6, label %if.then7, label %if.else16

if.then7:                                         ; preds = %while.body
  %add = add nuw nsw i32 %conv3, 1
  store i32 %add, ptr %length, align 4
  %sub = sub nsw i32 %dec, %add
  store i32 %sub, ptr %src_remaining, align 4
  %sub9 = sub nsw i32 %sub201823, %add
  store i32 %sub9, ptr %dst_remaining, align 4
  %cmp10 = icmp slt i32 %sub, 0
  %cmp11 = icmp slt i32 %sub9, 0
  %or.cond = select i1 %cmp10, i1 true, i1 %cmp11
  br i1 %or.cond, label %return.sink.split, label %if.end

if.end:                                           ; preds = %if.then7
  %conv13 = zext nneg i32 %add to i64
  tail call void @llvm.memcpy.p0.p0.i64(ptr noundef nonnull align 1 dereferenceable(1) %dst.addr.025, ptr noundef nonnull align 1 dereferenceable(1) %incdec.ptr, i64 %conv13, i1 false)
  %add.ptr = getelementptr inbounds i8, ptr %incdec.ptr, i64 %conv13
  br label %if.end32

if.else16:                                        ; preds = %while.body
  %sub18 = sub nsw i32 1, %conv3
  store i32 %sub18, ptr %length, align 4
  %dec19 = add nsw i32 %dec191624, -2
  store i32 %dec19, ptr %src_remaining, align 4
  %sub20 = sub nsw i32 %sub201823, %sub18
  store i32 %sub20, ptr %dst_remaining, align 4
  %cmp21 = icmp eq i32 %dec, 0
  %cmp23 = icmp slt i32 %sub20, 0
  %or.cond1 = select i1 %cmp21, i1 true, i1 %cmp23
  br i1 %or.cond1, label %return.sink.split, label %if.end25

if.end25:                                         ; preds = %if.else16
  %1 = load i8, ptr %incdec.ptr, align 1
  %conv27 = zext nneg i32 %sub18 to i64
  tail call void @llvm.memset.p0.i64(ptr align 1 %dst.addr.025, i8 %1, i64 %conv27, i1 false)
  %incdec.ptr28 = getelementptr inbounds i8, ptr %src.addr.026, i64 2
  br label %if.end32

if.end32:                                         ; preds = %if.end, %if.end25
  %sub2019 = phi i32 [ %sub9, %if.end ], [ %sub20, %if.end25 ]
  %dec1917 = phi i32 [ %sub, %if.end ], [ %dec19, %if.end25 ]
  %idx.ext.pn = phi i64 [ %conv13, %if.end ], [ %conv27, %if.end25 ]
  %src.addr.1 = phi ptr [ %add.ptr, %if.end ], [ %incdec.ptr28, %if.end25 ]
  %dst.addr.1 = getelementptr inbounds i8, ptr %dst.addr.025, i64 %idx.ext.pn
  %cmp = icmp slt i32 %dec1917, 1
  %cmp2 = icmp slt i32 %sub2019, 1
  %.not = select i1 %cmp, i1 true, i1 %cmp2
  br i1 %.not, label %return, label %while.body, !llvm.loop !79

return.sink.split:                                ; preds = %if.else16, %if.then7
  %.str.93.sink = phi ptr [ @.str.92, %if.then7 ], [ @.str.93, %if.else16 ]
  call void @_ZNK18OpenImageIO_v2_6_010ImageInput8errorfmtIJiiiEEEvPKcDpRKT_(ptr noundef nonnull align 8 dereferenceable(184) %this, ptr noundef nonnull %.str.93.sink, ptr noundef nonnull align 4 dereferenceable(4) %src_remaining, ptr noundef nonnull align 4 dereferenceable(4) %dst_remaining, ptr noundef nonnull align 4 dereferenceable(4) %length)
  br label %return

return:                                           ; preds = %if.end32, %return.sink.split, %entry
  %.not15 = phi i1 [ true, %entry ], [ false, %return.sink.split ], [ true, %if.end32 ]
  ret i1 %.not15
}